; Function Attrs: mustprogress nofree norecurse nounwind willreturn uwtable
define void @_ZN5arrow18RecordBatchBuilderC2ERKSt10shared_ptrINS_6SchemaEEPNS_10MemoryPoolEl(ptr noundef nonnull writeonly align 8 captures(none) dereferenceable(80) initializes((0, 80)) %0, ptr noundef nonnull readonly align 8 captures(none) dereferenceable(16) %1, ptr noundef %2, i64 noundef %3) unnamed_addr #1 align 2 personality ptr @__gxx_personality_v0 {
  %5 = load ptr, ptr %1, align 8, !tbaa !32
  store ptr %5, ptr %0, align 8, !tbaa !32
  %6 = getelementptr inbounds nuw i8, ptr %0, i64 8
  %7 = getelementptr inbounds nuw i8, ptr %1, i64 8
  %8 = load ptr, ptr %7, align 8, !tbaa !38
  store ptr %8, ptr %6, align 8, !tbaa !38
  %.not.i.i.i = icmp eq ptr %8, null
  br i1 %.not.i.i.i, label %_ZNSt10shared_ptrIN5arrow6SchemaEEC2ERKS2_.exit, label %9

9:                                                ; preds = %4
  %10 = getelementptr inbounds nuw i8, ptr %8, i64 8
  %11 = load i8, ptr @__libc_single_threaded, align 1, !tbaa !39
  %.not.i.i.i.i = icmp eq i8 %11, 0
  br i1 %.not.i.i.i.i, label %15, label %12

12:                                               ; preds = %9
  %13 = load i32, ptr %10, align 4, !tbaa !40
  %14 = add nsw i32 %13, 1
  store i32 %14, ptr %10, align 4, !tbaa !40
  br label %_ZNSt10shared_ptrIN5arrow6SchemaEEC2ERKS2_.exit

15:                                               ; preds = %9
  %16 = atomicrmw volatile add ptr %10, i32 1 acq_rel, align 4
  br label %_ZNSt10shared_ptrIN5arrow6SchemaEEC2ERKS2_.exit

_ZNSt10shared_ptrIN5arrow6SchemaEEC2ERKS2_.exit:  ; preds = %4, %12, %15
  %17 = getelementptr inbounds nuw i8, ptr %0, i64 16
  store i64 %3, ptr %17, align 8, !tbaa !41
  %18 = getelementptr inbounds nuw i8, ptr %0, i64 24
  store ptr %2, ptr %18, align 8, !tbaa !55
  %19 = getelementptr inbounds nuw i8, ptr %0, i64 32
  tail call void @llvm.memset.p0.i64(ptr noundef nonnull align 8 dereferenceable(48) %19, i8 0, i64 48, i1 false)
  ret void
}